; Function Attrs: mustprogress uwtable
define hidden void @_ZN3opt15model_based_opt13get_live_rowsER6vectorINS0_3rowELb1EjE(ptr noundef nonnull readonly align 8 captures(none) dereferenceable(112) %0, ptr noundef nonnull align 8 dereferenceable(8) %1) local_unnamed_addr #3 align 2 {
  %3 = load ptr, ptr %0, align 8, !tbaa !53
  %4 = icmp eq ptr %3, null
  br i1 %4, label %._crit_edge, label %_ZN6vectorIN3opt15model_based_opt3rowELb1EjE3endEv.exit

_ZN6vectorIN3opt15model_based_opt3rowELb1EjE3endEv.exit: ; preds = %2
  %5 = getelementptr inbounds i8, ptr %3, i64 -4
  %6 = load i32, ptr %5, align 4, !tbaa !19
  %7 = zext i32 %6 to i64
  %8 = getelementptr inbounds nuw %"struct.opt::model_based_opt::row", ptr %3, i64 %7
  %.not10 = icmp eq i32 %6, 0
  br i1 %.not10, label %._crit_edge, label %.lr.ph

._crit_edge:                                      ; preds = %30, %2, %_ZN6vectorIN3opt15model_based_opt3rowELb1EjE3endEv.exit
  ret void

.lr.ph:                                           ; preds = %_ZN6vectorIN3opt15model_based_opt3rowELb1EjE3endEv.exit, %30
  %.011 = phi ptr [ %31, %30 ], [ %3, %_ZN6vectorIN3opt15model_based_opt3rowELb1EjE3endEv.exit ]
  %9 = getelementptr inbounds nuw i8, ptr %.011, i64 112
  %10 = load i8, ptr %9, align 8, !tbaa !57, !range !97, !noundef !98
  %11 = trunc nuw i8 %10 to i1
  br i1 %11, label %12, label %30

12:                                               ; preds = %.lr.ph
  %13 = load ptr, ptr %1, align 8, !tbaa !53
  %14 = icmp eq ptr %13, null
  br i1 %14, label %21, label %15

15:                                               ; preds = %12
  %16 = getelementptr inbounds i8, ptr %13, i64 -4
  %17 = load i32, ptr %16, align 4, !tbaa !19
  %18 = getelementptr inbounds i8, ptr %13, i64 -8
  %19 = load i32, ptr %18, align 4, !tbaa !19
  %20 = icmp eq i32 %17, %19
  br i1 %20, label %21, label %_ZN6vectorIN3opt15model_based_opt3rowELb1EjE9push_backERKS2_.exit

21:                                               ; preds = %15, %12
  tail call void @_ZN6vectorIN3opt15model_based_opt3rowELb1EjE13expand_vectorEv(ptr noundef nonnull align 8 dereferenceable(8) %1)
  %.pre.i = load ptr, ptr %1, align 8, !tbaa !53
  %.phi.trans.insert.i = getelementptr inbounds i8, ptr %.pre.i, i64 -4
  %.pre2.i = load i32, ptr %.phi.trans.insert.i, align 4, !tbaa !19
  br label %_ZN6vectorIN3opt15model_based_opt3rowELb1EjE9push_backERKS2_.exit

_ZN6vectorIN3opt15model_based_opt3rowELb1EjE9push_backERKS2_.exit: ; preds = %15, %21
  %22 = phi i32 [ %.pre2.i, %21 ], [ %17, %15 ]
  %23 = phi ptr [ %.pre.i, %21 ], [ %13, %15 ]
  %24 = zext i32 %22 to i64
  %25 = getelementptr inbounds nuw %"struct.opt::model_based_opt::row", ptr %23, i64 %24
  tail call void @_ZN3opt15model_based_opt3rowC2ERKS1_(ptr noundef nonnull align 8 dereferenceable(120) %25, ptr noundef nonnull align 8 dereferenceable(120) %.011)
  %26 = load ptr, ptr %1, align 8, !tbaa !53
  %27 = getelementptr inbounds i8, ptr %26, i64 -4
  %28 = load i32, ptr %27, align 4, !tbaa !19
  %29 = add i32 %28, 1
  store i32 %29, ptr %27, align 4, !tbaa !19
  br label %30

30:                                               ; preds = %_ZN6vectorIN3opt15model_based_opt3rowELb1EjE9push_backERKS2_.exit, %.lr.ph
  %31 = getelementptr inbounds nuw i8, ptr %.011, i64 120
  %.not = icmp eq ptr %31, %8
  br i1 %.not, label %._crit_edge, label %.lr.ph
}